target datalayout = "e-m:e-p270:32:32-p271:32:32-p272:64:64-i64:64-i128:128-f80:128-n8:16:32:64-S128"
target triple = "x86_64-pc-linux-gnu"

%struct.AVFormatContext = type { ptr, ptr, ptr, ptr, ptr, i32, i32, ptr, i32, ptr, i32, ptr, ptr, i64, i64, i64, i32, i32, i32, i64, i64, ptr, i32, i32, ptr, i32, i32, i32, i32, ptr, i64, i32, i32, %struct.AVIOInterruptCB, i32, i32, i32, i32, i64, i32, i32, i32, i32, i32, i32, i32, i32, i32, i32, i32, i32, i64, i32, i32, i32, i32, i32, ptr, ptr, ptr, ptr, i32, ptr, ptr, ptr, ptr, i32, ptr, ptr, i64, ptr, ptr, ptr, i64 }
%struct.AVIOInterruptCB = type { ptr, ptr }
%struct.OMAContext = type { i64, i32, i16, i16, i16, i16, i32, [24 x i8], [24 x i8], [8 x i8], [8 x i8], [8 x i8], [8 x i8], [8 x i8], ptr, ptr }

@.str.26 = private unnamed_addr constant [5 x i8] c"EKB \00", align 1
@.str.27 = private unnamed_addr constant [17 x i8] c"Mismatching RID\0A\00", align 1

; Function Attrs: nounwind uwtable
define internal i32 @kset(ptr noundef %0, ptr noundef %1, ptr noundef %2, i32 noundef %3) #0 {
  %5 = alloca i32, align 4
  %6 = alloca ptr, align 8
  %7 = alloca ptr, align 8
  %8 = alloca ptr, align 8
  %9 = alloca i32, align 4
  %10 = alloca ptr, align 8
  %11 = alloca i32, align 4
  store ptr %0, ptr %6, align 8, !tbaa !17
  store ptr %1, ptr %7, align 8, !tbaa !13
  store ptr %2, ptr %8, align 8, !tbaa !13
  store i32 %3, ptr %9, align 4, !tbaa !14
  call void @llvm.lifetime.start.p0(i64 8, ptr %10) #9
  %12 = load ptr, ptr %6, align 8, !tbaa !17
  %13 = getelementptr inbounds nuw %struct.AVFormatContext, ptr %12, i32 0, i32 3
  %14 = load ptr, ptr %13, align 8, !tbaa !19
  store ptr %14, ptr %10, align 8, !tbaa !34
  %15 = load ptr, ptr %7, align 8, !tbaa !13
  %16 = icmp ne ptr %15, null
  br i1 %16, label %21, label %17

17:                                               ; preds = %4
  %18 = load ptr, ptr %8, align 8, !tbaa !13
  %19 = icmp ne ptr %18, null
  br i1 %19, label %21, label %20

20:                                               ; preds = %17
  store i32 -1, ptr %5, align 4
  store i32 1, ptr %11, align 4
  br label %77

21:                                               ; preds = %17, %4
  %22 = load i32, ptr %9, align 4, !tbaa !14
  %23 = icmp sgt i32 %22, 16
  br i1 %23, label %24, label %25

24:                                               ; preds = %21
  br label %27

25:                                               ; preds = %21
  %26 = load i32, ptr %9, align 4, !tbaa !14
  br label %27

27:                                               ; preds = %25, %24
  %28 = phi i32 [ 16, %24 ], [ %26, %25 ]
  store i32 %28, ptr %9, align 4, !tbaa !14
  %29 = load ptr, ptr %7, align 8, !tbaa !13
  %30 = icmp ne ptr %29, null
  br i1 %30, label %31, label %52

31:                                               ; preds = %27
  %32 = load ptr, ptr %7, align 8, !tbaa !13
  %33 = load ptr, ptr %10, align 8, !tbaa !34
  %34 = getelementptr inbounds nuw %struct.OMAContext, ptr %33, i32 0, i32 7
  %35 = getelementptr inbounds [24 x i8], ptr %34, i64 0, i64 0
  %36 = icmp ne ptr %32, %35
  br i1 %36, label %37, label %47

37:                                               ; preds = %31
  %38 = load ptr, ptr %10, align 8, !tbaa !34
  %39 = getelementptr inbounds nuw %struct.OMAContext, ptr %38, i32 0, i32 7
  %40 = getelementptr inbounds [24 x i8], ptr %39, i64 0, i64 0
  call void @llvm.memset.p0.i64(ptr align 8 %40, i8 0, i64 24, i1 false)
  %41 = load ptr, ptr %10, align 8, !tbaa !34
  %42 = getelementptr inbounds nuw %struct.OMAContext, ptr %41, i32 0, i32 7
  %43 = getelementptr inbounds [24 x i8], ptr %42, i64 0, i64 0
  %44 = load ptr, ptr %7, align 8, !tbaa !13
  %45 = load i32, ptr %9, align 4, !tbaa !14
  %46 = sext i32 %45 to i64
  call void @llvm.memcpy.p0.p0.i64(ptr align 8 %43, ptr align 1 %44, i64 %46, i1 false)
  br label %47

47:                                               ; preds = %37, %31
  %48 = load ptr, ptr %10, align 8, !tbaa !34
  %49 = getelementptr inbounds nuw %struct.OMAContext, ptr %48, i32 0, i32 7
  %50 = getelementptr inbounds [24 x i8], ptr %49, i64 0, i64 16
  %51 = load ptr, ptr %7, align 8, !tbaa !13
  call void @llvm.memcpy.p0.p0.i64(ptr align 8 %50, ptr align 1 %51, i64 8, i1 false)
  br label %52

52:                                               ; preds = %47, %27
  %53 = load ptr, ptr %8, align 8, !tbaa !13
  %54 = icmp ne ptr %53, null
  br i1 %54, label %55, label %76

55:                                               ; preds = %52
  %56 = load ptr, ptr %8, align 8, !tbaa !13
  %57 = load ptr, ptr %10, align 8, !tbaa !34
  %58 = getelementptr inbounds nuw %struct.OMAContext, ptr %57, i32 0, i32 8
  %59 = getelementptr inbounds [24 x i8], ptr %58, i64 0, i64 0
  %60 = icmp ne ptr %56, %59
  br i1 %60, label %61, label %71

61:                                               ; preds = %55
  %62 = load ptr, ptr %10, align 8, !tbaa !34
  %63 = getelementptr inbounds nuw %struct.OMAContext, ptr %62, i32 0, i32 8
  %64 = getelementptr inbounds [24 x i8], ptr %63, i64 0, i64 0
  call void @llvm.memset.p0.i64(ptr align 8 %64, i8 0, i64 24, i1 false)
  %65 = load ptr, ptr %10, align 8, !tbaa !34
  %66 = getelementptr inbounds nuw %struct.OMAContext, ptr %65, i32 0, i32 8
  %67 = getelementptr inbounds [24 x i8], ptr %66, i64 0, i64 0
  %68 = load ptr, ptr %8, align 8, !tbaa !13
  %69 = load i32, ptr %9, align 4, !tbaa !14
  %70 = sext i32 %69 to i64
  call void @llvm.memcpy.p0.p0.i64(ptr align 8 %67, ptr align 1 %68, i64 %70, i1 false)
  br label %71

71:                                               ; preds = %61, %55
  %72 = load ptr, ptr %10, align 8, !tbaa !34
  %73 = getelementptr inbounds nuw %struct.OMAContext, ptr %72, i32 0, i32 8
  %74 = getelementptr inbounds [24 x i8], ptr %73, i64 0, i64 16
  %75 = load ptr, ptr %8, align 8, !tbaa !13
  call void @llvm.memcpy.p0.p0.i64(ptr align 8 %74, ptr align 1 %75, i64 8, i1 false)
  br label %76

76:                                               ; preds = %71, %52
  store i32 0, ptr %5, align 4
  store i32 1, ptr %11, align 4
  br label %77

77:                                               ; preds = %76, %20
  call void @llvm.lifetime.end.p0(i64 8, ptr %10) #9
  %78 = load i32, ptr %5, align 4
  ret i32 %78
}

; Function Attrs: alwaysinline nounwind willreturn memory(none) uwtable
define internal i32 @av_bswap32(i32 noundef %0) #5 {
  %2 = alloca i32, align 4
  store i32 %0, ptr %2, align 4, !tbaa !14
  %3 = load i32, ptr %2, align 4, !tbaa !14
  %4 = shl i32 %3, 8
  %5 = and i32 %4, 65280
  %6 = load i32, ptr %2, align 4, !tbaa !14
  %7 = lshr i32 %6, 8
  %8 = and i32 %7, 255
  %9 = or i32 %5, %8
  %10 = shl i32 %9, 16
  %11 = load i32, ptr %2, align 4, !tbaa !14
  %12 = lshr i32 %11, 16
  %13 = shl i32 %12, 8
  %14 = and i32 %13, 65280
  %15 = load i32, ptr %2, align 4, !tbaa !14
  %16 = lshr i32 %15, 16
  %17 = lshr i32 %16, 8
  %18 = and i32 %17, 255
  %19 = or i32 %14, %18
  %20 = or i32 %10, %19
  ret i32 %20
}

; Function Attrs: nounwind uwtable
define internal i32 @nprobe(ptr noundef %0, ptr noundef %1, i32 noundef %2, ptr noundef %3) #0 {
  %5 = alloca i32, align 4
  %6 = alloca ptr, align 8
  %7 = alloca ptr, align 8
  %8 = alloca i32, align 4
  %9 = alloca ptr, align 8
  %10 = alloca ptr, align 8
  %11 = alloca i64, align 8
  %12 = alloca i32, align 4
  %13 = alloca i32, align 4
  %14 = alloca ptr, align 8
  %15 = alloca i32, align 4
  store ptr %0, ptr %6, align 8, !tbaa !17
  store ptr %1, ptr %7, align 8, !tbaa !13
  store i32 %2, ptr %8, align 4, !tbaa !14
  store ptr %3, ptr %9, align 8, !tbaa !13
  call void @llvm.lifetime.start.p0(i64 8, ptr %10) #9
  %16 = load ptr, ptr %6, align 8, !tbaa !17
  %17 = getelementptr inbounds nuw %struct.AVFormatContext, ptr %16, i32 0, i32 3
  %18 = load ptr, ptr %17, align 8, !tbaa !19
  store ptr %18, ptr %10, align 8, !tbaa !34
  call void @llvm.lifetime.start.p0(i64 8, ptr %11) #9
  call void @llvm.lifetime.start.p0(i64 4, ptr %12) #9
  call void @llvm.lifetime.start.p0(i64 4, ptr %13) #9
  call void @llvm.lifetime.start.p0(i64 8, ptr %14) #9
  %19 = load ptr, ptr %7, align 8, !tbaa !13
  %20 = icmp ne ptr %19, null
  br i1 %20, label %21, label %33

21:                                               ; preds = %4
  %22 = load ptr, ptr %9, align 8, !tbaa !13
  %23 = icmp ne ptr %22, null
  br i1 %23, label %24, label %33

24:                                               ; preds = %21
  %25 = load i32, ptr %8, align 4, !tbaa !14
  %26 = load ptr, ptr %10, align 8, !tbaa !34
  %27 = getelementptr inbounds nuw %struct.OMAContext, ptr %26, i32 0, i32 2
  %28 = load i16, ptr %27, align 4, !tbaa !98
  %29 = zext i16 %28 to i32
  %30 = add nsw i32 16, %29
  %31 = add nsw i32 %30, 4
  %32 = icmp ult i32 %25, %31
  br i1 %32, label %33, label %34

33:                                               ; preds = %24, %21, %4
  store i32 -1, ptr %5, align 4
  store i32 1, ptr %15, align 4
  br label %137

34:                                               ; preds = %24
  %35 = load ptr, ptr %10, align 8, !tbaa !34
  %36 = getelementptr inbounds nuw %struct.OMAContext, ptr %35, i32 0, i32 2
  %37 = load i16, ptr %36, align 4, !tbaa !98
  %38 = zext i16 %37 to i32
  %39 = add nsw i32 16, %38
  %40 = sext i32 %39 to i64
  store i64 %40, ptr %11, align 8, !tbaa !83
  %41 = load ptr, ptr %7, align 8, !tbaa !13
  %42 = load i64, ptr %11, align 8, !tbaa !83
  %43 = getelementptr inbounds nuw i8, ptr %41, i64 %42
  %44 = call i32 @memcmp(ptr noundef %43, ptr noundef @.str.26, i64 noundef 4) #10
  %45 = icmp ne i32 %44, 0
  br i1 %45, label %49, label %46

46:                                               ; preds = %34
  %47 = load i64, ptr %11, align 8, !tbaa !83
  %48 = add i64 %47, 32
  store i64 %48, ptr %11, align 8, !tbaa !83
  br label %49

49:                                               ; preds = %46, %34
  %50 = load i32, ptr %8, align 4, !tbaa !14
  %51 = zext i32 %50 to i64
  %52 = load i64, ptr %11, align 8, !tbaa !83
  %53 = add i64 %52, 44
  %54 = icmp ult i64 %51, %53
  br i1 %54, label %55, label %56

55:                                               ; preds = %49
  store i32 -1, ptr %5, align 4
  store i32 1, ptr %15, align 4
  br label %137

56:                                               ; preds = %49
  %57 = load ptr, ptr %7, align 8, !tbaa !13
  %58 = load i64, ptr %11, align 8, !tbaa !83
  %59 = getelementptr inbounds nuw i8, ptr %57, i64 %58
  %60 = load i32, ptr %59, align 1, !tbaa !16
  %61 = call i32 @av_bswap32(i32 noundef %60) #11
  %62 = load ptr, ptr %10, align 8, !tbaa !34
  %63 = getelementptr inbounds nuw %struct.OMAContext, ptr %62, i32 0, i32 6
  %64 = load i32, ptr %63, align 4, !tbaa !102
  %65 = icmp ne i32 %61, %64
  br i1 %65, label %66, label %68

66:                                               ; preds = %56
  %67 = load ptr, ptr %6, align 8, !tbaa !17
  call void (ptr, i32, ptr, ...) @av_log(ptr noundef %67, i32 noundef 48, ptr noundef @.str.27)
  br label %68

68:                                               ; preds = %66, %56
  %69 = load ptr, ptr %7, align 8, !tbaa !13
  %70 = load i64, ptr %11, align 8, !tbaa !83
  %71 = add i64 %70, 32
  %72 = getelementptr inbounds nuw i8, ptr %69, i64 %71
  %73 = load i32, ptr %72, align 1, !tbaa !16
  %74 = call i32 @av_bswap32(i32 noundef %73) #11
  store i32 %74, ptr %12, align 4, !tbaa !14
  %75 = load ptr, ptr %7, align 8, !tbaa !13
  %76 = load i64, ptr %11, align 8, !tbaa !83
  %77 = add i64 %76, 36
  %78 = getelementptr inbounds nuw i8, ptr %75, i64 %77
  %79 = load i32, ptr %78, align 1, !tbaa !16
  %80 = call i32 @av_bswap32(i32 noundef %79) #11
  %81 = lshr i32 %80, 4
  store i32 %81, ptr %13, align 4, !tbaa !14
  %82 = load i32, ptr %12, align 4, !tbaa !14
  %83 = zext i32 %82 to i64
  %84 = add nsw i64 44, %83
  %85 = load i64, ptr %11, align 8, !tbaa !83
  %86 = add i64 %85, %84
  store i64 %86, ptr %11, align 8, !tbaa !83
  %87 = load i64, ptr %11, align 8, !tbaa !83
  %88 = load i32, ptr %13, align 4, !tbaa !14
  %89 = zext i32 %88 to i64
  %90 = shl i64 %89, 4
  %91 = add i64 %87, %90
  %92 = load i32, ptr %8, align 4, !tbaa !14
  %93 = zext i32 %92 to i64
  %94 = icmp ugt i64 %91, %93
  br i1 %94, label %95, label %96

95:                                               ; preds = %68
  store i32 -1, ptr %5, align 4
  store i32 1, ptr %15, align 4
  br label %137

96:                                               ; preds = %68
  %97 = call ptr @av_des_alloc()
  store ptr %97, ptr %14, align 8, !tbaa !116
  %98 = load ptr, ptr %14, align 8, !tbaa !116
  %99 = icmp ne ptr %98, null
  br i1 %99, label %101, label %100

100:                                              ; preds = %96
  store i32 -12, ptr %5, align 4
  store i32 1, ptr %15, align 4
  br label %137

101:                                              ; preds = %96
  %102 = load ptr, ptr %14, align 8, !tbaa !116
  %103 = load ptr, ptr %9, align 8, !tbaa !13
  %104 = call i32 @av_des_init(ptr noundef %102, ptr noundef %103, i32 noundef 192, i32 noundef 1)
  br label %105

105:                                              ; preds = %132, %101
  %106 = load i32, ptr %13, align 4, !tbaa !14
  %107 = add i32 %106, -1
  store i32 %107, ptr %13, align 4, !tbaa !14
  %108 = icmp ugt i32 %106, 0
  br i1 %108, label %109, label %135

109:                                              ; preds = %105
  %110 = load ptr, ptr %14, align 8, !tbaa !116
  %111 = load ptr, ptr %10, align 8, !tbaa !34
  %112 = getelementptr inbounds nuw %struct.OMAContext, ptr %111, i32 0, i32 7
  %113 = getelementptr inbounds [24 x i8], ptr %112, i64 0, i64 0
  %114 = load ptr, ptr %7, align 8, !tbaa !13
  %115 = load i64, ptr %11, align 8, !tbaa !83
  %116 = getelementptr inbounds nuw i8, ptr %114, i64 %115
  call void @av_des_crypt(ptr noundef %110, ptr noundef %113, ptr noundef %116, i32 noundef 2, ptr noundef null, i32 noundef 1)
  %117 = load ptr, ptr %6, align 8, !tbaa !17
  %118 = load ptr, ptr %10, align 8, !tbaa !34
  %119 = getelementptr inbounds nuw %struct.OMAContext, ptr %118, i32 0, i32 7
  %120 = getelementptr inbounds [24 x i8], ptr %119, i64 0, i64 0
  %121 = call i32 @kset(ptr noundef %117, ptr noundef %120, ptr noundef null, i32 noundef 16)
  %122 = load ptr, ptr %6, align 8, !tbaa !17
  %123 = load ptr, ptr %7, align 8, !tbaa !13
  %124 = load i32, ptr %8, align 4, !tbaa !14
  %125 = load ptr, ptr %10, align 8, !tbaa !34
  %126 = getelementptr inbounds nuw %struct.OMAContext, ptr %125, i32 0, i32 7
  %127 = getelementptr inbounds [24 x i8], ptr %126, i64 0, i64 0
  %128 = call i32 @rprobe(ptr noundef %122, ptr noundef %123, i32 noundef %124, ptr noundef %127)
  %129 = icmp ne i32 %128, 0
  br i1 %129, label %132, label %130

130:                                              ; preds = %109
  %131 = load ptr, ptr %14, align 8, !tbaa !116
  call void @av_free(ptr noundef %131)
  store i32 0, ptr %5, align 4
  store i32 1, ptr %15, align 4
  br label %137

132:                                              ; preds = %109
  %133 = load i64, ptr %11, align 8, !tbaa !83
  %134 = add i64 %133, 16
  store i64 %134, ptr %11, align 8, !tbaa !83
  br label %105, !llvm.loop !117

135:                                              ; preds = %105
  %136 = load ptr, ptr %14, align 8, !tbaa !116
  call void @av_free(ptr noundef %136)
  store i32 -1, ptr %5, align 4
  store i32 1, ptr %15, align 4
  br label %137

137:                                              ; preds = %135, %130, %100, %95, %55, %33
  call void @llvm.lifetime.end.p0(i64 8, ptr %14) #9
  call void @llvm.lifetime.end.p0(i64 4, ptr %13) #9
  call void @llvm.lifetime.end.p0(i64 4, ptr %12) #9
  call void @llvm.lifetime.end.p0(i64 8, ptr %11) #9
  call void @llvm.lifetime.end.p0(i64 8, ptr %10) #9
  %138 = load i32, ptr %5, align 4
  ret i32 %138
}