; Function Attrs: nounwind uwtable
define internal fastcc range(i32 -12, 1) i32 @nprobe(ptr noundef %0, ptr noundef %1, i32 noundef %2, ptr noundef %3) unnamed_addr #0 {
  %5 = getelementptr inbounds nuw i8, ptr %0, i64 24
  %6 = load ptr, ptr %5, align 8, !tbaa !13
  %7 = icmp ne ptr %1, null
  %8 = icmp ne ptr %3, null
  %or.cond = and i1 %7, %8
  br i1 %or.cond, label %9, label %59

9:                                                ; preds = %4
  %10 = getelementptr inbounds nuw i8, ptr %6, i64 12
  %11 = load i16, ptr %10, align 4, !tbaa !45
  %12 = zext i16 %11 to i32
  %13 = add nuw nsw i32 %12, 20
  %14 = icmp ult i32 %2, %13
  br i1 %14, label %59, label %15

15:                                               ; preds = %9
  %16 = add nuw nsw i32 %12, 16
  %17 = zext nneg i32 %16 to i64
  %18 = getelementptr inbounds nuw i8, ptr %1, i64 %17
  %bcmp = tail call i32 @bcmp(ptr noundef nonnull dereferenceable(4) %18, ptr noundef nonnull dereferenceable(4) @.str.26, i64 4)
  %.not = icmp eq i32 %bcmp, 0
  %19 = add nuw nsw i64 %17, 32
  %spec.select = select i1 %.not, i64 %19, i64 %17
  %20 = zext i32 %2 to i64
  %21 = add nuw nsw i64 %spec.select, 44
  %22 = icmp samesign ugt i64 %21, %20
  br i1 %22, label %59, label %23

23:                                               ; preds = %15
  %24 = getelementptr inbounds nuw i8, ptr %1, i64 %spec.select
  %25 = load i32, ptr %24, align 1, !tbaa !12
  %26 = tail call i32 @llvm.bswap.i32(i32 %25)
  %27 = getelementptr inbounds nuw i8, ptr %6, i64 20
  %28 = load i32, ptr %27, align 4, !tbaa !49
  %.not49 = icmp eq i32 %26, %28
  br i1 %.not49, label %30, label %29

29:                                               ; preds = %23
  tail call void (ptr, i32, ptr, ...) @av_log(ptr noundef nonnull %0, i32 noundef 48, ptr noundef nonnull @.str.27) #9
  br label %30

30:                                               ; preds = %29, %23
  %31 = getelementptr inbounds nuw i8, ptr %24, i64 32
  %32 = load i32, ptr %31, align 1, !tbaa !12
  %33 = tail call i32 @llvm.bswap.i32(i32 %32)
  %34 = getelementptr inbounds nuw i8, ptr %24, i64 36
  %35 = load i32, ptr %34, align 1, !tbaa !12
  %36 = tail call i32 @llvm.bswap.i32(i32 %35)
  %37 = lshr i32 %36, 4
  %38 = zext i32 %33 to i64
  %39 = add nuw nsw i64 %21, %38
  %40 = and i32 %36, -16
  %41 = zext i32 %40 to i64
  %42 = add nuw nsw i64 %39, %41
  %43 = icmp samesign ugt i64 %42, %20
  br i1 %43, label %59, label %44

44:                                               ; preds = %30
  %45 = tail call ptr @av_des_alloc() #9
  %.not50 = icmp eq ptr %45, null
  br i1 %.not50, label %59, label %46

46:                                               ; preds = %44
  %47 = tail call i32 @av_des_init(ptr noundef nonnull %45, ptr noundef nonnull %3, i32 noundef 192, i32 noundef 1) #9
  %.not5154 = icmp ult i32 %36, 16
  br i1 %.not5154, label %.sink.split, label %.lr.ph

.lr.ph:                                           ; preds = %46
  %48 = getelementptr inbounds nuw i8, ptr %6, i64 24
  br label %51

49:                                               ; preds = %kset.exit
  %50 = add nuw nsw i64 %.155, 16
  %.not51 = icmp eq i32 %52, 0
  br i1 %.not51, label %.sink.split, label %51, !llvm.loop !101

51:                                               ; preds = %.lr.ph, %49
  %.in = phi i32 [ %37, %.lr.ph ], [ %52, %49 ]
  %.155 = phi i64 [ %39, %.lr.ph ], [ %50, %49 ]
  %52 = add nsw i32 %.in, -1
  %53 = getelementptr inbounds nuw i8, ptr %1, i64 %.155
  tail call void @av_des_crypt(ptr noundef nonnull %45, ptr noundef nonnull %48, ptr noundef nonnull %53, i32 noundef 2, ptr noundef null, i32 noundef 1) #9
  %.val = load ptr, ptr %5, align 8, !tbaa !13
  %.not.i = icmp eq ptr %6, %.val
  br i1 %.not.i, label %kset.exit, label %54

54:                                               ; preds = %51
  %55 = getelementptr inbounds nuw i8, ptr %.val, i64 24
  tail call void @llvm.memset.p0.i64(ptr noundef nonnull align 8 dereferenceable(24) %55, i8 0, i64 24, i1 false)
  tail call void @llvm.memcpy.p0.p0.i64(ptr noundef nonnull align 8 dereferenceable(16) %55, ptr noundef nonnull readonly align 1 dereferenceable(16) %48, i64 16, i1 false)
  br label %kset.exit

kset.exit:                                        ; preds = %51, %54
  %56 = getelementptr inbounds nuw i8, ptr %.val, i64 40
  %57 = load i64, ptr %48, align 1
  store i64 %57, ptr %56, align 8
  %.val53 = load ptr, ptr %5, align 8, !tbaa !13
  %58 = tail call fastcc i32 @rprobe(ptr %.val53, ptr noundef nonnull %1, i32 noundef %2, ptr noundef nonnull %48)
  %.not52 = icmp eq i32 %58, 0
  br i1 %.not52, label %.sink.split, label %49

.sink.split:                                      ; preds = %49, %kset.exit, %46
  %.0.ph = phi i32 [ -1, %46 ], [ 0, %kset.exit ], [ -1, %49 ]
  tail call void @av_free(ptr noundef nonnull %45) #9
  br label %59

59:                                               ; preds = %.sink.split, %44, %30, %15, %4, %9
  %.0 = phi i32 [ -1, %9 ], [ -1, %4 ], [ -1, %15 ], [ -1, %30 ], [ -12, %44 ], [ %.0.ph, %.sink.split ]
  ret i32 %.0
}